   1               		.file	"main.c"
   2               	__SP_H__ = 0x3e
   3               	__SP_L__ = 0x3d
   4               	__SREG__ = 0x3f
   5               	__RAMPZ__ = 0x3b
   6               	__CCP__ = 0x34
   7               	__tmp_reg__ = 0
   8               	__zero_reg__ = 1
   9               		.text
  10               	.Ltext0:
  11               		.cfi_sections	.debug_frame
  12               	.global	get_key
  14               	get_key:
  15               	.LFB22:
  16               		.file 1 "main.c"
   1:main.c        **** #include <stdio.h>
   2:main.c        **** #include <stdlib.h>
   3:main.c        **** #include <string.h>
   4:main.c        **** #include <stdint.h>
   5:main.c        **** #include "gift128.c"
   6:main.c        **** #include "hal.h"
   7:main.c        **** #include "simpleserial.h"
   8:main.c        **** 
   9:main.c        **** 
  10:main.c        **** uint8_t key[32] = {0x0,0x1,0x2,0x3,0x4,0x5,0x6,0x7,0x8,0x9,0xA,0xB,0xC,0xD,0xE,0xF,0x0,0x1,0x2,0x3,
  11:main.c        **** 
  12:main.c        **** uint8_t key_copy[32];
  13:main.c        **** uint8_t msg_copy[32];
  14:main.c        **** 
  15:main.c        **** uint8_t get_key(uint8_t* k)
  16:main.c        **** {
  17               		.loc 1 16 0
  18               		.cfi_startproc
  19               	.LVL0:
  20               	/* prologue: function */
  21               	/* frame size = 0 */
  22               	/* stack size = 0 */
  23               	.L__stack_usage = 0
  17:main.c        **** 	//ignore the input k and use pre-defined key
  18:main.c        **** 
  19:main.c        **** 	return 0x00;
  20:main.c        **** }
  24               		.loc 1 20 0
  25 0000 80E0      		ldi r24,0
  26               	.LVL1:
  27               	/* epilogue start */
  28 0002 0895      		ret
  29               		.cfi_endproc
  30               	.LFE22:
  32               	.global	reset
  34               	reset:
  35               	.LFB27:
  36               		.cfi_startproc
  37               	/* prologue: function */
  38               	/* frame size = 0 */
  39               	/* stack size = 0 */
  40               	.L__stack_usage = 0
  41 0004 80E0      		ldi r24,0
  42               	/* epilogue start */
  43 0006 0895      		ret
  44               		.cfi_endproc
  45               	.LFE27:
  47               	.global	to_bits
  49               	to_bits:
  50               	.LFB12:
  51               		.file 2 "gift128.c"
   1:gift128.c     **** #include <stdio.h>
   2:gift128.c     **** #include <stdint.h>
   3:gift128.c     **** #include "hal.h"
   4:gift128.c     **** #include "simpleserial.h"
   5:gift128.c     **** //Sbox
   6:gift128.c     **** const uint8_t sbox[16] = {1,10, 4,12, 6,15, 3, 9, 2,13,11, 7, 5, 0, 8,14};
   7:gift128.c     **** const uint8_t invsbox[16] = {13, 0, 8, 6, 2,12, 4,11,14, 7, 1,10, 3, 9,15, 5};
   8:gift128.c     **** 
   9:gift128.c     **** //X0 <- x00, X1 <- x01,...., X4 <- x10, X5 <- x11,... etc.
  10:gift128.c     **** //127,126,125,124,          .....        7,6,5,4,  3,2,1,0
  11:gift128.c     **** void to_bits(uint8_t *A, uint8_t *B){
  52               		.loc 2 11 0
  53               		.cfi_startproc
  54               	.LVL2:
  55               		.loc 2 11 0
  56 0008 CF93      		push r28
  57               	.LCFI0:
  58               		.cfi_def_cfa_offset 4
  59               		.cfi_offset 28, -3
  60 000a DF93      		push r29
  61               	.LCFI1:
  62               		.cfi_def_cfa_offset 5
  63               		.cfi_offset 29, -4
  64               	/* prologue: function */
  65               	/* frame size = 0 */
  66               	/* stack size = 2 */
  67               	.L__stack_usage = 2
  68               	.LVL3:
  69 000c DC01      		movw r26,r24
  70 000e 9096      		adiw r26,32
  71               	.LVL4:
  72               	.L4:
  73               		.loc 2 11 0
  74 0010 FB01      		movw r30,r22
  75               	.LBB2:
  76               	.LBB3:
  12:gift128.c     ****     for(int i = 0; i < 32; i++){
  13:gift128.c     ****         for(int j = 0; j < 4; j++){
  77               		.loc 2 13 0
  78 0012 50E0      		ldi r21,0
  79 0014 40E0      		ldi r20,0
  80               	.LVL5:
  81               	.L5:
  14:gift128.c     ****         B[(i * 4) + j] = (A[i] >> j) & 0x1;
  82               		.loc 2 14 0 discriminator 3
  83 0016 EC01      		movw r28,r24
  84 0018 2881      		ld r18,Y
  85 001a 30E0      		ldi r19,0
  86 001c 042E      		mov r0,r20
  87 001e 00C0      		rjmp 2f
  88               		1:
  89 0020 3595      		asr r19
  90 0022 2795      		ror r18
  91               		2:
  92 0024 0A94      		dec r0
  93 0026 02F4      		brpl 1b
  94 0028 2170      		andi r18,lo8(1)
  95 002a 2193      		st Z+,r18
  13:gift128.c     ****         B[(i * 4) + j] = (A[i] >> j) & 0x1;
  96               		.loc 2 13 0 discriminator 3
  97 002c 4F5F      		subi r20,-1
  98 002e 5F4F      		sbci r21,-1
  99               	.LVL6:
 100 0030 4430      		cpi r20,4
 101 0032 5105      		cpc r21,__zero_reg__
 102 0034 01F4      		brne .L5
 103               	.LVL7:
 104 0036 6C5F      		subi r22,-4
 105 0038 7F4F      		sbci r23,-1
 106 003a 0196      		adiw r24,1
 107               	.LVL8:
 108               	.LBE3:
  12:gift128.c     ****     for(int i = 0; i < 32; i++){
 109               		.loc 2 12 0 discriminator 2
 110 003c A817      		cp r26,r24
 111 003e B907      		cpc r27,r25
 112 0040 01F4      		brne .L4
 113               	/* epilogue start */
 114               	.LBE2:
  15:gift128.c     ****         }
  16:gift128.c     ****     }
  17:gift128.c     **** }
 115               		.loc 2 17 0
 116 0042 DF91      		pop r29
 117 0044 CF91      		pop r28
 118               	.LVL9:
 119 0046 0895      		ret
 120               		.cfi_endproc
 121               	.LFE12:
 123               	.global	from_bits
 125               	from_bits:
 126               	.LFB13:
  18:gift128.c     **** void from_bits(uint8_t *A, uint8_t *B){
 127               		.loc 2 18 0
 128               		.cfi_startproc
 129               	.LVL10:
 130               	/* prologue: function */
 131               	/* frame size = 0 */
 132               	/* stack size = 0 */
 133               	.L__stack_usage = 0
 134 0048 FC01      		movw r30,r24
 135 004a DB01      		movw r26,r22
 136 004c AC01      		movw r20,r24
 137 004e 4058      		subi r20,-128
 138 0050 5F4F      		sbci r21,-1
 139               	.LVL11:
 140               	.L9:
 141               	.LBB4:
  19:gift128.c     ****     //convert bit-wise variables into nibble-wise variables
  20:gift128.c     ****     for(int i = 0; i < 32; i++){
  21:gift128.c     ****         //0 is LSB and 3 is MSB in each nibble
  22:gift128.c     ****         B[i]  = (A[(4 * i)]         );
 142               		.loc 2 22 0 discriminator 3
 143 0052 8081      		ld r24,Z
 144 0054 8C93      		st X,r24
  23:gift128.c     ****         B[i] ^= (A[(4 * i) + 1] << 1);
 145               		.loc 2 23 0 discriminator 3
 146 0056 9181      		ldd r25,Z+1
 147 0058 990F      		lsl r25
 148 005a 9827      		eor r25,r24
 149 005c 9C93      		st X,r25
  24:gift128.c     ****         B[i] ^= (A[(4 * i) + 2] << 2);
 150               		.loc 2 24 0 discriminator 3
 151 005e 2281      		ldd r18,Z+2
 152 0060 84E0      		ldi r24,lo8(4)
 153 0062 289F      		mul r18,r24
 154 0064 9001      		movw r18,r0
 155 0066 1124      		clr __zero_reg__
 156 0068 9227      		eor r25,r18
 157 006a 9C93      		st X,r25
  25:gift128.c     ****         B[i] ^= (A[(4 * i) + 3] << 3);
 158               		.loc 2 25 0 discriminator 3
 159 006c 2381      		ldd r18,Z+3
 160 006e 88E0      		ldi r24,lo8(8)
 161 0070 289F      		mul r18,r24
 162 0072 9001      		movw r18,r0
 163 0074 1124      		clr __zero_reg__
 164 0076 9227      		eor r25,r18
 165 0078 9D93      		st X+,r25
 166               	.LVL12:
 167 007a 3496      		adiw r30,4
  20:gift128.c     ****         //0 is LSB and 3 is MSB in each nibble
 168               		.loc 2 20 0 discriminator 3
 169 007c E417      		cp r30,r20
 170 007e F507      		cpc r31,r21
 171 0080 01F4      		brne .L9
 172               	/* epilogue start */
 173               	.LBE4:
  26:gift128.c     ****     }
  27:gift128.c     **** }
 174               		.loc 2 27 0
 175 0082 0895      		ret
 176               		.cfi_endproc
 177               	.LFE13:
 179               	.global	SBox
 181               	SBox:
 182               	.LFB14:
  28:gift128.c     **** void SBox(uint8_t *state){
 183               		.loc 2 28 0
 184               		.cfi_startproc
 185               	.LVL13:
 186               	/* prologue: function */
 187               	/* frame size = 0 */
 188               	/* stack size = 0 */
 189               	.L__stack_usage = 0
 190 0084 9C01      		movw r18,r24
 191 0086 205E      		subi r18,-32
 192 0088 3F4F      		sbci r19,-1
 193               	.LVL14:
 194               	.L12:
 195               	.LBB5:
  29:gift128.c     ****     //SBox
  30:gift128.c     ****     for(int i=0; i<32; i++){
  31:gift128.c     ****     	state[i] = sbox[state[i]];
 196               		.loc 2 31 0 discriminator 3
 197 008a DC01      		movw r26,r24
 198 008c ED91      		ld r30,X+
 199 008e CD01      		movw r24,r26
 200               	.LVL15:
 201 0090 1197      		sbiw r26,1
 202 0092 F0E0      		ldi r31,0
 203 0094 E050      		subi r30,lo8(-(sbox))
 204 0096 F040      		sbci r31,hi8(-(sbox))
 205 0098 4081      		ld r20,Z
 206 009a 4C93      		st X,r20
 207               	.LVL16:
  30:gift128.c     ****     	state[i] = sbox[state[i]];
 208               		.loc 2 30 0 discriminator 3
 209 009c 8217      		cp r24,r18
 210 009e 9307      		cpc r25,r19
 211 00a0 01F4      		brne .L12
 212               	/* epilogue start */
 213               	.LBE5:
  32:gift128.c     ****     }
  33:gift128.c     **** }
 214               		.loc 2 33 0
 215 00a2 0895      		ret
 216               		.cfi_endproc
 217               	.LFE14:
 219               	.global	genPerm
 221               	genPerm:
 222               	.LFB15:
  34:gift128.c     **** 
  35:gift128.c     **** int genPerm(int i) {
 223               		.loc 2 35 0
 224               		.cfi_startproc
 225               	.LVL17:
 226               	/* prologue: function */
 227               	/* frame size = 0 */
 228               	/* stack size = 0 */
 229               	.L__stack_usage = 0
  36:gift128.c     ****     return ((i >> 4) << 2) + (((3*((i & 0xf)>>2) + (i & 3)) & 3) << 5) + (i & 3);
 230               		.loc 2 36 0
 231 00a4 AC01      		movw r20,r24
 232 00a6 5595      		asr r21
 233 00a8 4795      		ror r20
 234 00aa 5595      		asr r21
 235 00ac 4795      		ror r20
 236 00ae 4370      		andi r20,3
 237 00b0 5527      		clr r21
 238 00b2 9A01      		movw r18,r20
 239 00b4 220F      		lsl r18
 240 00b6 331F      		rol r19
 241 00b8 240F      		add r18,r20
 242 00ba 351F      		adc r19,r21
 243 00bc 280F      		add r18,r24
 244 00be 391F      		adc r19,r25
 245 00c0 75E0      		ldi r23,5
 246               		1:
 247 00c2 220F      		lsl r18
 248 00c4 331F      		rol r19
 249 00c6 7A95      		dec r23
 250 00c8 01F4      		brne 1b
 251 00ca 2076      		andi r18,96
 252 00cc 3327      		clr r19
 253 00ce AC01      		movw r20,r24
 254 00d0 E4E0      		ldi r30,4
 255               		1:
 256 00d2 5595      		asr r21
 257 00d4 4795      		ror r20
 258 00d6 EA95      		dec r30
 259 00d8 01F4      		brne 1b
 260 00da 440F      		lsl r20
 261 00dc 551F      		rol r21
 262 00de 440F      		lsl r20
 263 00e0 551F      		rol r21
 264 00e2 240F      		add r18,r20
 265 00e4 351F      		adc r19,r21
 266 00e6 8370      		andi r24,3
 267 00e8 9927      		clr r25
 268               	.LVL18:
  37:gift128.c     **** }
 269               		.loc 2 37 0
 270 00ea 820F      		add r24,r18
 271 00ec 931F      		adc r25,r19
 272               	/* epilogue start */
 273 00ee 0895      		ret
 274               		.cfi_endproc
 275               	.LFE15:
 277               	.global	PLayer
 279               	PLayer:
 280               	.LFB16:
  38:gift128.c     **** void PLayer(uint8_t *state){
 281               		.loc 2 38 0
 282               		.cfi_startproc
 283               	.LVL19:
 284 00f0 CF92      		push r12
 285               	.LCFI2:
 286               		.cfi_def_cfa_offset 4
 287               		.cfi_offset 12, -3
 288 00f2 DF92      		push r13
 289               	.LCFI3:
 290               		.cfi_def_cfa_offset 5
 291               		.cfi_offset 13, -4
 292 00f4 EF92      		push r14
 293               	.LCFI4:
 294               		.cfi_def_cfa_offset 6
 295               		.cfi_offset 14, -5
 296 00f6 FF92      		push r15
 297               	.LCFI5:
 298               		.cfi_def_cfa_offset 7
 299               		.cfi_offset 15, -6
 300 00f8 0F93      		push r16
 301               	.LCFI6:
 302               		.cfi_def_cfa_offset 8
 303               		.cfi_offset 16, -7
 304 00fa 1F93      		push r17
 305               	.LCFI7:
 306               		.cfi_def_cfa_offset 9
 307               		.cfi_offset 17, -8
 308 00fc CF93      		push r28
 309               	.LCFI8:
 310               		.cfi_def_cfa_offset 10
 311               		.cfi_offset 28, -9
 312 00fe DF93      		push r29
 313               	.LCFI9:
 314               		.cfi_def_cfa_offset 11
 315               		.cfi_offset 29, -10
 316 0100 CDB7      		in r28,__SP_L__
 317 0102 DEB7      		in r29,__SP_H__
 318               	.LCFI10:
 319               		.cfi_def_cfa_register 28
 320 0104 DA95      		dec r29
 321               	.LCFI11:
 322               		.cfi_def_cfa_offset 267
 323 0106 CDBF      		out __SP_L__,r28
 324 0108 DEBF      		out __SP_H__,r29
 325               	/* prologue: function */
 326               	/* frame size = 256 */
 327               	/* stack size = 264 */
 328               	.L__stack_usage = 264
 329 010a 6C01      		movw r12,r24
  39:gift128.c     ****     uint8_t tmp[128];
  40:gift128.c     ****     uint8_t bits[128];
  41:gift128.c     ****     to_bits(state, tmp);
 330               		.loc 2 41 0
 331 010c BE01      		movw r22,r28
 332 010e 6F57      		subi r22,127
 333 0110 7F4F      		sbci r23,-1
 334 0112 0E94 0000 		call to_bits
 335               	.LVL20:
 336 0116 8E01      		movw r16,r28
 337 0118 0F57      		subi r16,127
 338 011a 1F4F      		sbci r17,-1
 339               	.LBB6:
  42:gift128.c     ****     for(int i = 0; i < 128; i++){
 340               		.loc 2 42 0
 341 011c F12C      		mov r15,__zero_reg__
 342 011e E12C      		mov r14,__zero_reg__
 343               	.LVL21:
 344               	.L16:
  43:gift128.c     ****         bits[genPerm(i)] = tmp[i];
 345               		.loc 2 43 0 discriminator 3
 346 0120 C701      		movw r24,r14
 347 0122 0E94 0000 		call genPerm
 348               	.LVL22:
 349 0126 F801      		movw r30,r16
 350 0128 2191      		ld r18,Z+
 351 012a 8F01      		movw r16,r30
 352 012c 41E0      		ldi r20,lo8(1)
 353 012e 50E0      		ldi r21,0
 354 0130 4C0F      		add r20,r28
 355 0132 5D1F      		adc r21,r29
 356 0134 840F      		add r24,r20
 357 0136 951F      		adc r25,r21
 358 0138 FC01      		movw r30,r24
 359 013a 2083      		st Z,r18
  42:gift128.c     ****     for(int i = 0; i < 128; i++){
 360               		.loc 2 42 0 discriminator 3
 361 013c FFEF      		ldi r31,-1
 362 013e EF1A      		sub r14,r31
 363 0140 FF0A      		sbc r15,r31
 364               	.LVL23:
 365 0142 40E8      		ldi r20,-128
 366 0144 E416      		cp r14,r20
 367 0146 F104      		cpc r15,__zero_reg__
 368 0148 01F4      		brne .L16
 369               	.LBE6:
  44:gift128.c     ****     }
  45:gift128.c     ****     from_bits(bits, state);
 370               		.loc 2 45 0
 371 014a B601      		movw r22,r12
 372 014c CE01      		movw r24,r28
 373 014e 0196      		adiw r24,1
 374 0150 0E94 0000 		call from_bits
 375               	.LVL24:
 376               	/* epilogue start */
  46:gift128.c     **** }
 377               		.loc 2 46 0
 378 0154 D395      		inc r29
 379 0156 CDBF      		out __SP_L__,r28
 380 0158 DEBF      		out __SP_H__,r29
 381 015a DF91      		pop r29
 382 015c CF91      		pop r28
 383 015e 1F91      		pop r17
 384 0160 0F91      		pop r16
 385 0162 FF90      		pop r15
 386 0164 EF90      		pop r14
 387               	.LVL25:
 388 0166 DF90      		pop r13
 389 0168 CF90      		pop r12
 390               	.LVL26:
 391 016a 0895      		ret
 392               		.cfi_endproc
 393               	.LFE16:
 395               	.global	Key_update
 397               	Key_update:
 398               	.LFB17:
  47:gift128.c     **** void Key_update(uint8_t *key){
 399               		.loc 2 47 0
 400               		.cfi_startproc
 401               	.LVL27:
 402 016c CF93      		push r28
 403               	.LCFI12:
 404               		.cfi_def_cfa_offset 4
 405               		.cfi_offset 28, -3
 406 016e DF93      		push r29
 407               	.LCFI13:
 408               		.cfi_def_cfa_offset 5
 409               		.cfi_offset 29, -4
 410 0170 CDB7      		in r28,__SP_L__
 411 0172 DEB7      		in r29,__SP_H__
 412               	.LCFI14:
 413               		.cfi_def_cfa_register 28
 414 0174 A097      		sbiw r28,32
 415               	.LCFI15:
 416               		.cfi_def_cfa_offset 37
 417 0176 CDBF      		out __SP_L__,r28
 418 0178 DEBF      		out __SP_H__,r29
 419               	/* prologue: function */
 420               	/* frame size = 32 */
 421               	/* stack size = 34 */
 422               	.L__stack_usage = 34
 423 017a FC01      		movw r30,r24
 424               	.LVL28:
 425 017c 9E01      		movw r18,r28
 426 017e 2F5F      		subi r18,-1
 427 0180 3F4F      		sbci r19,-1
 428               		.loc 2 47 0
 429 0182 A901      		movw r20,r18
 430 0184 88E0      		ldi r24,lo8(8)
 431 0186 90E0      		ldi r25,0
 432               	.LVL29:
 433               	.L19:
 434               	.LBB7:
  48:gift128.c     ****     uint8_t temp_key[32];
  49:gift128.c     ****     //entire key>>32
  50:gift128.c     ****     for(int i=0; i<32; i++){
  51:gift128.c     ****         temp_key[i] = key[(i+8)%32];
 435               		.loc 2 51 0 discriminator 3
 436 0188 DC01      		movw r26,r24
 437 018a AF71      		andi r26,31
 438 018c BB27      		clr r27
 439 018e AE0F      		add r26,r30
 440 0190 BF1F      		adc r27,r31
 441 0192 6C91      		ld r22,X
 442 0194 DA01      		movw r26,r20
 443 0196 6D93      		st X+,r22
 444 0198 AD01      		movw r20,r26
 445               	.LVL30:
 446 019a 0196      		adiw r24,1
 447               	.LVL31:
  50:gift128.c     ****         temp_key[i] = key[(i+8)%32];
 448               		.loc 2 50 0 discriminator 3
 449 019c 8832      		cpi r24,40
 450 019e 9105      		cpc r25,__zero_reg__
 451 01a0 01F4      		brne .L19
 452 01a2 BF01      		movw r22,r30
 453 01a4 CF01      		movw r24,r30
 454               	.LVL32:
 455 01a6 4896      		adiw r24,24
 456               	.L20:
 457               	.LBE7:
 458               	.LBB8:
  52:gift128.c     ****     }
  53:gift128.c     ****     for(int i=0; i<24; i++) key[i] = temp_key[i];
 459               		.loc 2 53 0 discriminator 3
 460 01a8 D901      		movw r26,r18
 461 01aa 4D91      		ld r20,X+
 462 01ac 9D01      		movw r18,r26
 463 01ae DB01      		movw r26,r22
 464 01b0 4D93      		st X+,r20
 465 01b2 BD01      		movw r22,r26
 466               	.LVL33:
 467 01b4 A817      		cp r26,r24
 468 01b6 B907      		cpc r27,r25
 469 01b8 01F4      		brne .L20
 470               	.LBE8:
  54:gift128.c     ****     //k0>>12
  55:gift128.c     ****     key[24] = temp_key[27];
 471               		.loc 2 55 0
 472 01ba 8C8D      		ldd r24,Y+28
 473 01bc 808F      		std Z+24,r24
  56:gift128.c     ****     key[25] = temp_key[24];
 474               		.loc 2 56 0
 475 01be 898D      		ldd r24,Y+25
 476 01c0 818F      		std Z+25,r24
  57:gift128.c     ****     key[26] = temp_key[25];
 477               		.loc 2 57 0
 478 01c2 8A8D      		ldd r24,Y+26
 479 01c4 828F      		std Z+26,r24
  58:gift128.c     ****     key[27] = temp_key[26];
 480               		.loc 2 58 0
 481 01c6 8B8D      		ldd r24,Y+27
 482 01c8 838F      		std Z+27,r24
  59:gift128.c     ****     //k1>>2
  60:gift128.c     ****     key[28] = ((temp_key[28]&0xc)>>2) ^ ((temp_key[29]&0x3)<<2);
 483               		.loc 2 60 0
 484 01ca 4D8D      		ldd r20,Y+29
 485 01cc 50E0      		ldi r21,0
 486 01ce 8E8D      		ldd r24,Y+30
 487 01d0 90E0      		ldi r25,0
 488 01d2 9A01      		movw r18,r20
 489 01d4 3595      		asr r19
 490 01d6 2795      		ror r18
 491 01d8 3595      		asr r19
 492 01da 2795      		ror r18
 493 01dc 2370      		andi r18,lo8(3)
 494 01de BC01      		movw r22,r24
 495 01e0 660F      		lsl r22
 496 01e2 771F      		rol r23
 497 01e4 660F      		lsl r22
 498 01e6 771F      		rol r23
 499 01e8 6C70      		andi r22,lo8(12)
 500 01ea 262B      		or r18,r22
 501 01ec 248F      		std Z+28,r18
  61:gift128.c     ****     key[29] = ((temp_key[29]&0xc)>>2) ^ ((temp_key[30]&0x3)<<2);
 502               		.loc 2 61 0
 503 01ee 2F8D      		ldd r18,Y+31
 504 01f0 30E0      		ldi r19,0
 505 01f2 9595      		asr r25
 506 01f4 8795      		ror r24
 507 01f6 9595      		asr r25
 508 01f8 8795      		ror r24
 509 01fa 8370      		andi r24,lo8(3)
 510 01fc B901      		movw r22,r18
 511 01fe 660F      		lsl r22
 512 0200 771F      		rol r23
 513 0202 660F      		lsl r22
 514 0204 771F      		rol r23
 515 0206 6C70      		andi r22,lo8(12)
 516 0208 862B      		or r24,r22
 517 020a 858F      		std Z+29,r24
  62:gift128.c     ****     key[30] = ((temp_key[30]&0xc)>>2) ^ ((temp_key[31]&0x3)<<2);
 518               		.loc 2 62 0
 519 020c 98A1      		ldd r25,Y+32
 520 020e 892F      		mov r24,r25
 521 0210 90E0      		ldi r25,0
 522 0212 3595      		asr r19
 523 0214 2795      		ror r18
 524 0216 3595      		asr r19
 525 0218 2795      		ror r18
 526 021a 2370      		andi r18,lo8(3)
 527 021c BC01      		movw r22,r24
 528 021e 660F      		lsl r22
 529 0220 771F      		rol r23
 530 0222 660F      		lsl r22
 531 0224 771F      		rol r23
 532 0226 6C70      		andi r22,lo8(12)
 533 0228 262B      		or r18,r22
 534 022a 268F      		std Z+30,r18
  63:gift128.c     ****     key[31] = ((temp_key[31]&0xc)>>2) ^ ((temp_key[28]&0x3)<<2);
 535               		.loc 2 63 0
 536 022c 9595      		asr r25
 537 022e 8795      		ror r24
 538 0230 9595      		asr r25
 539 0232 8795      		ror r24
 540 0234 8370      		andi r24,lo8(3)
 541 0236 440F      		lsl r20
 542 0238 551F      		rol r21
 543 023a 440F      		lsl r20
 544 023c 551F      		rol r21
 545 023e 4C70      		andi r20,lo8(12)
 546 0240 842B      		or r24,r20
 547 0242 878F      		std Z+31,r24
 548               	/* epilogue start */
  64:gift128.c     **** }
 549               		.loc 2 64 0
 550 0244 A096      		adiw r28,32
 551 0246 CDBF      		out __SP_L__,r28
 552 0248 DEBF      		out __SP_H__,r29
 553 024a DF91      		pop r29
 554 024c CF91      		pop r28
 555 024e 0895      		ret
 556               		.cfi_endproc
 557               	.LFE17:
 559               	.global	addRk
 561               	addRk:
 562               	.LFB18:
  65:gift128.c     **** void addRk(uint8_t *state, uint8_t *key){
 563               		.loc 2 65 0
 564               		.cfi_startproc
 565               	.LVL34:
 566 0250 0F93      		push r16
 567               	.LCFI16:
 568               		.cfi_def_cfa_offset 4
 569               		.cfi_offset 16, -3
 570 0252 1F93      		push r17
 571               	.LCFI17:
 572               		.cfi_def_cfa_offset 5
 573               		.cfi_offset 17, -4
 574 0254 CF93      		push r28
 575               	.LCFI18:
 576               		.cfi_def_cfa_offset 6
 577               		.cfi_offset 28, -5
 578 0256 DF93      		push r29
 579               	.LCFI19:
 580               		.cfi_def_cfa_offset 7
 581               		.cfi_offset 29, -6
 582 0258 CDB7      		in r28,__SP_L__
 583 025a DEB7      		in r29,__SP_H__
 584               	.LCFI20:
 585               		.cfi_def_cfa_register 28
 586 025c DA95      		dec r29
 587               	.LCFI21:
 588               		.cfi_def_cfa_offset 263
 589 025e CDBF      		out __SP_L__,r28
 590 0260 DEBF      		out __SP_H__,r29
 591               	/* prologue: function */
 592               	/* frame size = 256 */
 593               	/* stack size = 260 */
 594               	.L__stack_usage = 260
 595 0262 8C01      		movw r16,r24
 596 0264 CB01      		movw r24,r22
 597               	.LVL35:
  66:gift128.c     ****     uint8_t bits[128];
  67:gift128.c     ****     uint8_t key_bits[128];
  68:gift128.c     ****     to_bits(key, key_bits);
 598               		.loc 2 68 0
 599 0266 BE01      		movw r22,r28
 600               	.LVL36:
 601 0268 6F5F      		subi r22,-1
 602 026a 7F4F      		sbci r23,-1
 603 026c 0E94 0000 		call to_bits
 604               	.LVL37:
  69:gift128.c     ****     to_bits(state, bits);
 605               		.loc 2 69 0
 606 0270 BE01      		movw r22,r28
 607 0272 6F57      		subi r22,127
 608 0274 7F4F      		sbci r23,-1
 609 0276 C801      		movw r24,r16
 610 0278 0E94 0000 		call to_bits
 611               	.LVL38:
 612 027c FE01      		movw r30,r28
 613 027e EF57      		subi r30,127
 614 0280 FF4F      		sbci r31,-1
 615 0282 DE01      		movw r26,r28
 616 0284 1196      		adiw r26,1
 617 0286 9E01      		movw r18,r28
 618 0288 2F5F      		subi r18,-1
 619 028a 3E4F      		sbci r19,-2
 620               	.LVL39:
 621               	.L24:
 622               	.LBB9:
  70:gift128.c     ****     int kbc=0;  //key_bit_counter
  71:gift128.c     ****     for (int i=0; i<32; i++){
  72:gift128.c     ****         bits[4*i+1] ^= key_bits[kbc];
 623               		.loc 2 72 0 discriminator 3
 624 028c 9D91      		ld r25,X+
 625 028e 8181      		ldd r24,Z+1
 626 0290 8927      		eor r24,r25
 627 0292 8183      		std Z+1,r24
  73:gift128.c     ****         bits[4*i+2] ^= key_bits[kbc+64];
 628               		.loc 2 73 0 discriminator 3
 629 0294 8281      		ldd r24,Z+2
 630 0296 DF96      		adiw r26,63
 631 0298 9C91      		ld r25,X
 632 029a DF97      		sbiw r26,63
 633 029c 8927      		eor r24,r25
 634 029e 8283      		std Z+2,r24
 635 02a0 3496      		adiw r30,4
  71:gift128.c     ****         bits[4*i+1] ^= key_bits[kbc];
 636               		.loc 2 71 0 discriminator 3
 637 02a2 E217      		cp r30,r18
 638 02a4 F307      		cpc r31,r19
 639 02a6 01F4      		brne .L24
 640               	.LBE9:
  74:gift128.c     ****         kbc++;
  75:gift128.c     ****     }
  76:gift128.c     ****     from_bits(bits, state);
 641               		.loc 2 76 0
 642 02a8 B801      		movw r22,r16
 643 02aa CE01      		movw r24,r28
 644 02ac 8F57      		subi r24,127
 645 02ae 9F4F      		sbci r25,-1
 646 02b0 0E94 0000 		call from_bits
 647               	.LVL40:
 648               	/* epilogue start */
  77:gift128.c     **** }
 649               		.loc 2 77 0
 650 02b4 D395      		inc r29
 651 02b6 CDBF      		out __SP_L__,r28
 652 02b8 DEBF      		out __SP_H__,r29
 653 02ba DF91      		pop r29
 654 02bc CF91      		pop r28
 655 02be 1F91      		pop r17
 656 02c0 0F91      		pop r16
 657               	.LVL41:
 658 02c2 0895      		ret
 659               		.cfi_endproc
 660               	.LFE18:
 662               	.global	addRc
 664               	addRc:
 665               	.LFB19:
  78:gift128.c     **** 
  79:gift128.c     **** void addRc(uint8_t *state, uint8_t RC){
 666               		.loc 2 79 0
 667               		.cfi_startproc
 668               	.LVL42:
 669 02c4 EF92      		push r14
 670               	.LCFI22:
 671               		.cfi_def_cfa_offset 4
 672               		.cfi_offset 14, -3
 673 02c6 FF92      		push r15
 674               	.LCFI23:
 675               		.cfi_def_cfa_offset 5
 676               		.cfi_offset 15, -4
 677 02c8 1F93      		push r17
 678               	.LCFI24:
 679               		.cfi_def_cfa_offset 6
 680               		.cfi_offset 17, -5
 681 02ca CF93      		push r28
 682               	.LCFI25:
 683               		.cfi_def_cfa_offset 7
 684               		.cfi_offset 28, -6
 685 02cc DF93      		push r29
 686               	.LCFI26:
 687               		.cfi_def_cfa_offset 8
 688               		.cfi_offset 29, -7
 689 02ce CDB7      		in r28,__SP_L__
 690 02d0 DEB7      		in r29,__SP_H__
 691               	.LCFI27:
 692               		.cfi_def_cfa_register 28
 693 02d2 C058      		subi r28,-128
 694 02d4 D109      		sbc r29,__zero_reg__
 695               	.LCFI28:
 696               		.cfi_def_cfa_offset 136
 697 02d6 CDBF      		out __SP_L__,r28
 698 02d8 DEBF      		out __SP_H__,r29
 699               	/* prologue: function */
 700               	/* frame size = 128 */
 701               	/* stack size = 133 */
 702               	.L__stack_usage = 133
 703 02da 7C01      		movw r14,r24
 704 02dc 162F      		mov r17,r22
  80:gift128.c     ****     uint8_t bits[128];
  81:gift128.c     ****     to_bits(state, bits);
 705               		.loc 2 81 0
 706 02de BE01      		movw r22,r28
 707               	.LVL43:
 708 02e0 6F5F      		subi r22,-1
 709 02e2 7F4F      		sbci r23,-1
 710 02e4 0E94 0000 		call to_bits
 711               	.LVL44:
  82:gift128.c     ****     //add constant
  83:gift128.c     ****     bits[3] ^= RC & 0x1;
 712               		.loc 2 83 0
 713 02e8 912F      		mov r25,r17
 714 02ea 9170      		andi r25,lo8(1)
 715 02ec 8C81      		ldd r24,Y+4
 716 02ee 8927      		eor r24,r25
 717 02f0 8C83      		std Y+4,r24
  84:gift128.c     ****     bits[7] ^= (RC>>1) & 0x1;
 718               		.loc 2 84 0
 719 02f2 11FB      		bst r17,1
 720 02f4 9927      		clr r25
 721 02f6 90F9      		bld r25,0
 722 02f8 8885      		ldd r24,Y+8
 723 02fa 8927      		eor r24,r25
 724 02fc 8887      		std Y+8,r24
  85:gift128.c     ****     bits[11] ^= (RC>>2) & 0x1;
 725               		.loc 2 85 0
 726 02fe 12FB      		bst r17,2
 727 0300 9927      		clr r25
 728 0302 90F9      		bld r25,0
 729 0304 8C85      		ldd r24,Y+12
 730 0306 8927      		eor r24,r25
 731 0308 8C87      		std Y+12,r24
  86:gift128.c     ****     bits[15] ^= (RC>>3) & 0x1;
 732               		.loc 2 86 0
 733 030a 13FB      		bst r17,3
 734 030c 9927      		clr r25
 735 030e 90F9      		bld r25,0
 736 0310 8889      		ldd r24,Y+16
 737 0312 8927      		eor r24,r25
 738 0314 888B      		std Y+16,r24
  87:gift128.c     ****     bits[19] ^= (RC>>4) & 0x1;
 739               		.loc 2 87 0
 740 0316 14FB      		bst r17,4
 741 0318 9927      		clr r25
 742 031a 90F9      		bld r25,0
 743 031c 8C89      		ldd r24,Y+20
 744 031e 8927      		eor r24,r25
 745 0320 8C8B      		std Y+20,r24
  88:gift128.c     ****     bits[23] ^= (RC>>5) & 0x1;
 746               		.loc 2 88 0
 747 0322 15FB      		bst r17,5
 748 0324 1127      		clr r17
 749 0326 10F9      		bld r17,0
 750               	.LVL45:
 751 0328 888D      		ldd r24,Y+24
 752 032a 1827      		eor r17,r24
 753 032c 188F      		std Y+24,r17
  89:gift128.c     ****     bits[127] ^= 1;
 754               		.loc 2 89 0
 755 032e C058      		subi r28,lo8(-128)
 756 0330 DF4F      		sbci r29,hi8(-128)
 757 0332 8881      		ld r24,Y
 758 0334 C058      		subi r28,lo8(128)
 759 0336 D040      		sbci r29,hi8(128)
 760 0338 91E0      		ldi r25,lo8(1)
 761 033a 8927      		eor r24,r25
 762 033c C058      		subi r28,lo8(-128)
 763 033e DF4F      		sbci r29,hi8(-128)
 764 0340 8883      		st Y,r24
 765 0342 C058      		subi r28,lo8(128)
 766 0344 D040      		sbci r29,hi8(128)
  90:gift128.c     ****     from_bits(bits, state);
 767               		.loc 2 90 0
 768 0346 B701      		movw r22,r14
 769 0348 CE01      		movw r24,r28
 770 034a 0196      		adiw r24,1
 771 034c 0E94 0000 		call from_bits
 772               	.LVL46:
 773               	/* epilogue start */
  91:gift128.c     **** }
 774               		.loc 2 91 0
 775 0350 C058      		subi r28,-128
 776 0352 DF4F      		sbci r29,-1
 777 0354 CDBF      		out __SP_L__,r28
 778 0356 DEBF      		out __SP_H__,r29
 779 0358 DF91      		pop r29
 780 035a CF91      		pop r28
 781 035c 1F91      		pop r17
 782 035e FF90      		pop r15
 783 0360 EF90      		pop r14
 784               	.LVL47:
 785 0362 0895      		ret
 786               		.cfi_endproc
 787               	.LFE19:
 789               	.global	updateConst
 791               	updateConst:
 792               	.LFB20:
  92:gift128.c     **** uint8_t updateConst(uint8_t cc){
 793               		.loc 2 92 0
 794               		.cfi_startproc
 795               	.LVL48:
 796               	/* prologue: function */
 797               	/* frame size = 0 */
 798               	/* stack size = 0 */
 799               	.L__stack_usage = 0
  93:gift128.c     ****     return ((cc << 1) ^ ( ((cc >> 5) & 0x01) ^ ((cc >> 4) & 0x01) ^ 1) );
 800               		.loc 2 93 0
 801 0364 982F      		mov r25,r24
 802 0366 9295      		swap r25
 803 0368 9695      		lsr r25
 804 036a 9770      		andi r25,lo8(7)
 805 036c 282F      		mov r18,r24
 806 036e 2295      		swap r18
 807 0370 2F70      		andi r18,lo8(15)
 808 0372 9227      		eor r25,r18
 809 0374 9095      		com r25
 810 0376 9170      		andi r25,lo8(1)
 811 0378 880F      		lsl r24
 812               	.LVL49:
  94:gift128.c     **** }
 813               		.loc 2 94 0
 814 037a 892B      		or r24,r25
 815               	/* epilogue start */
 816 037c 0895      		ret
 817               		.cfi_endproc
 818               	.LFE20:
 820               	.global	enc
 822               	enc:
 823               	.LFB21:
  95:gift128.c     **** void enc(int rounds, uint8_t *state, uint8_t *key){
 824               		.loc 2 95 0
 825               		.cfi_startproc
 826               	.LVL50:
 827 037e AF92      		push r10
 828               	.LCFI29:
 829               		.cfi_def_cfa_offset 4
 830               		.cfi_offset 10, -3
 831 0380 BF92      		push r11
 832               	.LCFI30:
 833               		.cfi_def_cfa_offset 5
 834               		.cfi_offset 11, -4
 835 0382 CF92      		push r12
 836               	.LCFI31:
 837               		.cfi_def_cfa_offset 6
 838               		.cfi_offset 12, -5
 839 0384 DF92      		push r13
 840               	.LCFI32:
 841               		.cfi_def_cfa_offset 7
 842               		.cfi_offset 13, -6
 843 0386 EF92      		push r14
 844               	.LCFI33:
 845               		.cfi_def_cfa_offset 8
 846               		.cfi_offset 14, -7
 847 0388 FF92      		push r15
 848               	.LCFI34:
 849               		.cfi_def_cfa_offset 9
 850               		.cfi_offset 15, -8
 851 038a 0F93      		push r16
 852               	.LCFI35:
 853               		.cfi_def_cfa_offset 10
 854               		.cfi_offset 16, -9
 855 038c 1F93      		push r17
 856               	.LCFI36:
 857               		.cfi_def_cfa_offset 11
 858               		.cfi_offset 17, -10
 859 038e CF93      		push r28
 860               	.LCFI37:
 861               		.cfi_def_cfa_offset 12
 862               		.cfi_offset 28, -11
 863 0390 DF93      		push r29
 864               	.LCFI38:
 865               		.cfi_def_cfa_offset 13
 866               		.cfi_offset 29, -12
 867               	/* prologue: function */
 868               	/* frame size = 0 */
 869               	/* stack size = 10 */
 870               	.L__stack_usage = 10
 871 0392 5C01      		movw r10,r24
 872 0394 8B01      		movw r16,r22
 873 0396 6A01      		movw r12,r20
 874               	.LVL51:
 875               	.LBB10:
  96:gift128.c     ****     uint8_t rconst = 0x00;
  97:gift128.c     ****     for(int r=0; r<rounds; r++){
 876               		.loc 2 97 0
 877 0398 D0E0      		ldi r29,0
 878 039a C0E0      		ldi r28,0
 879               	.LBE10:
  96:gift128.c     ****     uint8_t rconst = 0x00;
 880               		.loc 2 96 0
 881 039c F12C      		mov r15,__zero_reg__
 882               	.LBB11:
  98:gift128.c     ****         if(r==35) trigger_high();
 883               		.loc 2 98 0
 884 039e EE24      		clr r14
 885 03a0 E394      		inc r14
 886               	.LVL52:
 887               	.L29:
  97:gift128.c     ****         if(r==35) trigger_high();
 888               		.loc 2 97 0 discriminator 1
 889 03a2 CA15      		cp r28,r10
 890 03a4 DB05      		cpc r29,r11
 891 03a6 04F0      		brlt .L32
 892               	/* epilogue start */
 893               	.LBE11:
  99:gift128.c     ****         SBox(state);
 100:gift128.c     ****         if(r==35) {
 101:gift128.c     ****             trigger_low();
 102:gift128.c     ****             //break;
 103:gift128.c     ****         }
 104:gift128.c     ****         PLayer(state);
 105:gift128.c     ****         rconst = updateConst(rconst);
 106:gift128.c     ****         addRc(state, rconst);
 107:gift128.c     ****         addRk(state, key);
 108:gift128.c     ****         Key_update(key);
 109:gift128.c     ****         
 110:gift128.c     ****         
 111:gift128.c     ****     }
 112:gift128.c     **** }
 894               		.loc 2 112 0
 895 03a8 DF91      		pop r29
 896 03aa CF91      		pop r28
 897               	.LVL53:
 898 03ac 1F91      		pop r17
 899 03ae 0F91      		pop r16
 900               	.LVL54:
 901 03b0 FF90      		pop r15
 902               	.LVL55:
 903 03b2 EF90      		pop r14
 904 03b4 DF90      		pop r13
 905 03b6 CF90      		pop r12
 906               	.LVL56:
 907 03b8 BF90      		pop r11
 908 03ba AF90      		pop r10
 909               	.LVL57:
 910 03bc 0895      		ret
 911               	.LVL58:
 912               	.L32:
 913               	.LBB12:
  98:gift128.c     ****         SBox(state);
 914               		.loc 2 98 0
 915 03be C332      		cpi r28,35
 916 03c0 D105      		cpc r29,__zero_reg__
 917 03c2 01F4      		brne .L30
  98:gift128.c     ****         SBox(state);
 918               		.loc 2 98 0 is_stmt 0 discriminator 1
 919 03c4 E092 0506 		sts 1541,r14
 920               	.L30:
  99:gift128.c     ****         SBox(state);
 921               		.loc 2 99 0 is_stmt 1
 922 03c8 C801      		movw r24,r16
 923 03ca 0E94 0000 		call SBox
 924               	.LVL59:
 100:gift128.c     ****             trigger_low();
 925               		.loc 2 100 0
 926 03ce C332      		cpi r28,35
 927 03d0 D105      		cpc r29,__zero_reg__
 928 03d2 01F4      		brne .L31
 101:gift128.c     ****             //break;
 929               		.loc 2 101 0
 930 03d4 E092 0606 		sts 1542,r14
 931               	.L31:
 104:gift128.c     ****         rconst = updateConst(rconst);
 932               		.loc 2 104 0 discriminator 2
 933 03d8 C801      		movw r24,r16
 934 03da 0E94 0000 		call PLayer
 935               	.LVL60:
 105:gift128.c     ****         addRc(state, rconst);
 936               		.loc 2 105 0 discriminator 2
 937 03de 8F2D      		mov r24,r15
 938 03e0 0E94 0000 		call updateConst
 939               	.LVL61:
 940 03e4 F82E      		mov r15,r24
 941               	.LVL62:
 106:gift128.c     ****         addRk(state, key);
 942               		.loc 2 106 0 discriminator 2
 943 03e6 682F      		mov r22,r24
 944 03e8 C801      		movw r24,r16
 945 03ea 0E94 0000 		call addRc
 946               	.LVL63:
 107:gift128.c     ****         Key_update(key);
 947               		.loc 2 107 0 discriminator 2
 948 03ee B601      		movw r22,r12
 949 03f0 C801      		movw r24,r16
 950 03f2 0E94 0000 		call addRk
 951               	.LVL64:
 108:gift128.c     ****         
 952               		.loc 2 108 0 discriminator 2
 953 03f6 C601      		movw r24,r12
 954 03f8 0E94 0000 		call Key_update
 955               	.LVL65:
  97:gift128.c     ****         if(r==35) trigger_high();
 956               		.loc 2 97 0 discriminator 2
 957 03fc 2196      		adiw r28,1
 958               	.LVL66:
 959 03fe 00C0      		rjmp .L29
 960               	.LBE12:
 961               		.cfi_endproc
 962               	.LFE21:
 964               	.global	get_pt
 966               	get_pt:
 967               	.LFB23:
  21:main.c        **** 
  22:main.c        **** uint8_t get_pt(uint8_t* pt)
  23:main.c        **** {
 968               		.loc 1 23 0
 969               		.cfi_startproc
 970               	.LVL67:
 971               	/* prologue: function */
 972               	/* frame size = 0 */
 973               	/* stack size = 0 */
 974               	.L__stack_usage = 0
 975 0400 E0E0      		ldi r30,lo8(msg_copy)
 976 0402 F0E0      		ldi r31,hi8(msg_copy)
 977 0404 9C01      		movw r18,r24
 978 0406 205E      		subi r18,-32
 979 0408 3F4F      		sbci r19,-1
 980               	.LVL68:
 981               	.L34:
 982               	.LBB13:
  24:main.c        ****     
  25:main.c        ****     for(int j=0;j<32;j++)
  26:main.c        ****         msg_copy[j]=pt[j];
 983               		.loc 1 26 0 discriminator 3
 984 040a DC01      		movw r26,r24
 985 040c 4D91      		ld r20,X+
 986 040e CD01      		movw r24,r26
 987               	.LVL69:
 988 0410 4193      		st Z+,r20
 989               	.LVL70:
  25:main.c        ****         msg_copy[j]=pt[j];
 990               		.loc 1 25 0 discriminator 3
 991 0412 A217      		cp r26,r18
 992 0414 B307      		cpc r27,r19
 993 0416 01F4      		brne .L34
 994 0418 E0E0      		ldi r30,lo8(key)
 995 041a F0E0      		ldi r31,hi8(key)
 996 041c A0E0      		ldi r26,lo8(key_copy)
 997 041e B0E0      		ldi r27,hi8(key_copy)
 998               	.LVL71:
 999               	.L35:
 1000               	.LBE13:
 1001               	.LBB14:
  27:main.c        ****     
  28:main.c        ****     for(int j=0;j<32;j++)
  29:main.c        ****         key_copy[j]=key[j];
 1002               		.loc 1 29 0 discriminator 3
 1003 0420 8191      		ld r24,Z+
 1004               	.LVL72:
 1005 0422 8D93      		st X+,r24
 1006               	.LVL73:
  28:main.c        ****         key_copy[j]=key[j];
 1007               		.loc 1 28 0 discriminator 3
 1008 0424 80E0      		ldi r24,hi8(key+32)
 1009 0426 E030      		cpi r30,lo8(key+32)
 1010 0428 F807      		cpc r31,r24
 1011 042a 01F4      		brne .L35
 1012               	.LBE14:
  30:main.c        ****         
  31:main.c        ****     //trigger_high();
  32:main.c        **** 
  33:main.c        ****     enc(40, msg_copy, key_copy);
 1013               		.loc 1 33 0
 1014 042c 40E0      		ldi r20,lo8(key_copy)
 1015 042e 50E0      		ldi r21,hi8(key_copy)
 1016 0430 60E0      		ldi r22,lo8(msg_copy)
 1017 0432 70E0      		ldi r23,hi8(msg_copy)
 1018 0434 88E2      		ldi r24,lo8(40)
 1019 0436 90E0      		ldi r25,0
 1020 0438 0E94 0000 		call enc
 1021               	.LVL74:
  34:main.c        **** 
  35:main.c        ****     //trigger_low();
  36:main.c        ****     
  37:main.c        ****     simpleserial_put('r', 32, msg_copy);
 1022               		.loc 1 37 0
 1023 043c 40E0      		ldi r20,lo8(msg_copy)
 1024 043e 50E0      		ldi r21,hi8(msg_copy)
 1025 0440 60E2      		ldi r22,lo8(32)
 1026 0442 82E7      		ldi r24,lo8(114)
 1027 0444 0E94 0000 		call simpleserial_put
 1028               	.LVL75:
  38:main.c        **** 
  39:main.c        ****    return 0x00;
  40:main.c        **** }
 1029               		.loc 1 40 0
 1030 0448 80E0      		ldi r24,0
 1031               	/* epilogue start */
 1032 044a 0895      		ret
 1033               		.cfi_endproc
 1034               	.LFE23:
 1036               		.section	.text.startup,"ax",@progbits
 1037               	.global	main
 1039               	main:
 1040               	.LFB25:
  41:main.c        **** 
  42:main.c        **** uint8_t reset(uint8_t* x)
  43:main.c        **** {
  44:main.c        ****     // Reset key here if needed
  45:main.c        **** 	return 0x00;
  46:main.c        **** }
  47:main.c        **** 
  48:main.c        **** int main(void)
  49:main.c        **** {
 1041               		.loc 1 49 0
 1042               		.cfi_startproc
 1043               	/* prologue: function */
 1044               	/* frame size = 0 */
 1045               	/* stack size = 0 */
 1046               	.L__stack_usage = 0
  50:main.c        ****     platform_init();
 1047               		.loc 1 50 0
 1048 0000 0E94 0000 		call platform_init
 1049               	.LVL76:
  51:main.c        ****     init_uart();
 1050               		.loc 1 51 0
 1051 0004 0E94 0000 		call init_uart0
 1052               	.LVL77:
  52:main.c        ****     trigger_setup();
 1053               		.loc 1 52 0
 1054 0008 81E0      		ldi r24,lo8(1)
 1055 000a 8093 0106 		sts 1537,r24
  53:main.c        ****     
  54:main.c        ****     
  55:main.c        **** 	simpleserial_init();
 1056               		.loc 1 55 0
 1057 000e 0E94 0000 		call simpleserial_init
 1058               	.LVL78:
  56:main.c        ****     simpleserial_addcmd('k', 16,  get_key);
 1059               		.loc 1 56 0
 1060 0012 40E0      		ldi r20,lo8(gs(get_key))
 1061 0014 50E0      		ldi r21,hi8(gs(get_key))
 1062 0016 60E1      		ldi r22,lo8(16)
 1063 0018 70E0      		ldi r23,0
 1064 001a 8BE6      		ldi r24,lo8(107)
 1065 001c 0E94 0000 		call simpleserial_addcmd
 1066               	.LVL79:
  57:main.c        ****     simpleserial_addcmd('p', 32,  get_pt);
 1067               		.loc 1 57 0
 1068 0020 40E0      		ldi r20,lo8(gs(get_pt))
 1069 0022 50E0      		ldi r21,hi8(gs(get_pt))
 1070 0024 60E2      		ldi r22,lo8(32)
 1071 0026 70E0      		ldi r23,0
 1072 0028 80E7      		ldi r24,lo8(112)
 1073 002a 0E94 0000 		call simpleserial_addcmd
 1074               	.LVL80:
  58:main.c        ****     simpleserial_addcmd('x',  0,   reset);
 1075               		.loc 1 58 0
 1076 002e 40E0      		ldi r20,lo8(gs(reset))
 1077 0030 50E0      		ldi r21,hi8(gs(reset))
 1078 0032 70E0      		ldi r23,0
 1079 0034 60E0      		ldi r22,0
 1080 0036 88E7      		ldi r24,lo8(120)
 1081 0038 0E94 0000 		call simpleserial_addcmd
 1082               	.LVL81:
 1083               	.L39:
  59:main.c        ****     while(1)
  60:main.c        ****         simpleserial_get();
 1084               		.loc 1 60 0 discriminator 1
 1085 003c 0E94 0000 		call simpleserial_get
 1086               	.LVL82:
 1087 0040 00C0      		rjmp .L39
 1088               		.cfi_endproc
 1089               	.LFE25:
 1091               		.comm	msg_copy,32,1
 1092               		.comm	key_copy,32,1
 1093               	.global	key
 1094               		.data
 1097               	key:
 1098 0000 00        		.byte	0
 1099 0001 01        		.byte	1
 1100 0002 02        		.byte	2
 1101 0003 03        		.byte	3
 1102 0004 04        		.byte	4
 1103 0005 05        		.byte	5
 1104 0006 06        		.byte	6
 1105 0007 07        		.byte	7
 1106 0008 08        		.byte	8
 1107 0009 09        		.byte	9
 1108 000a 0A        		.byte	10
 1109 000b 0B        		.byte	11
 1110 000c 0C        		.byte	12
 1111 000d 0D        		.byte	13
 1112 000e 0E        		.byte	14
 1113 000f 0F        		.byte	15
 1114 0010 00        		.byte	0
 1115 0011 01        		.byte	1
 1116 0012 02        		.byte	2
 1117 0013 03        		.byte	3
 1118 0014 04        		.byte	4
 1119 0015 05        		.byte	5
 1120 0016 06        		.byte	6
 1121 0017 07        		.byte	7
 1122 0018 08        		.byte	8
 1123 0019 09        		.byte	9
 1124 001a 0A        		.byte	10
 1125 001b 0B        		.byte	11
 1126 001c 0C        		.byte	12
 1127 001d 0D        		.byte	13
 1128 001e 0E        		.byte	14
 1129 001f 0F        		.byte	15
 1130               	.global	invsbox
 1131               		.section	.rodata
 1134               	invsbox:
 1135 0000 0D        		.byte	13
 1136 0001 00        		.byte	0
 1137 0002 08        		.byte	8
 1138 0003 06        		.byte	6
 1139 0004 02        		.byte	2
 1140 0005 0C        		.byte	12
 1141 0006 04        		.byte	4
 1142 0007 0B        		.byte	11
 1143 0008 0E        		.byte	14
 1144 0009 07        		.byte	7
 1145 000a 01        		.byte	1
 1146 000b 0A        		.byte	10
 1147 000c 03        		.byte	3
 1148 000d 09        		.byte	9
 1149 000e 0F        		.byte	15
 1150 000f 05        		.byte	5
 1151               	.global	sbox
 1154               	sbox:
 1155 0010 01        		.byte	1
 1156 0011 0A        		.byte	10
 1157 0012 04        		.byte	4
 1158 0013 0C        		.byte	12
 1159 0014 06        		.byte	6
 1160 0015 0F        		.byte	15
 1161 0016 03        		.byte	3
 1162 0017 09        		.byte	9
 1163 0018 02        		.byte	2
 1164 0019 0D        		.byte	13
 1165 001a 0B        		.byte	11
 1166 001b 07        		.byte	7
 1167 001c 05        		.byte	5
 1168 001d 00        		.byte	0
 1169 001e 08        		.byte	8
 1170 001f 0E        		.byte	14
 1171               		.text
 1172               	.Letext0:
 1173               		.file 3 "/usr/lib/avr/include/stdint.h"
 1174               		.file 4 "/usr/lib/gcc/avr/7.3.0/include/stddef.h"
 1175               		.file 5 "/usr/lib/avr/include/stdio.h"
 1176               		.file 6 "/usr/lib/avr/include/stdlib.h"
 1177               		.file 7 "/usr/lib/avr/include/avr/iox128d3.h"
 1178               		.file 8 "dependencies/hal/hal.h"
 1179               		.file 9 "dependencies/hal/xmega/uart.h"
 1180               		.file 10 "dependencies/simpleserial/simpleserial.h"